; Function Attrs: nounwind uwtable
define dso_local ptr @uv_default_loop() local_unnamed_addr #0 {
  %1 = load ptr, ptr @default_loop_ptr, align 8, !tbaa !44
  %.not = icmp eq ptr %1, null
  br i1 %.not, label %2, label %5

2:                                                ; preds = %0
  %3 = tail call i32 @uv_loop_init(ptr noundef nonnull @default_loop_struct) #26
  %.not2 = icmp eq i32 %3, 0
  br i1 %.not2, label %4, label %5

4:                                                ; preds = %2
  store ptr @default_loop_struct, ptr @default_loop_ptr, align 8, !tbaa !44
  br label %5

5:                                                ; preds = %2, %0, %4
  %.0 = phi ptr [ @default_loop_struct, %4 ], [ %1, %0 ], [ null, %2 ]
  ret ptr %.0
}